; Function Attrs: nounwind uwtable
define dso_local zeroext i1 @cgroup_g_has_pid(i32 noundef %0) local_unnamed_addr #0 {
  %2 = load i32, ptr @plugin_inited, align 4
  %3 = icmp eq i32 %2, 1
  br i1 %3, label %7, label %4

4:                                                ; preds = %1
  %5 = load ptr, ptr getelementptr inbounds nuw (i8, ptr @ops, i64 80), align 8
  %6 = tail call zeroext i1 %5(i32 noundef %0) #12
  br label %7

7:                                                ; preds = %1, %4
  %.0 = phi i1 [ %6, %4 ], [ false, %1 ]
  ret i1 %.0
}